target datalayout = "e-m:e-p270:32:32-p271:32:32-p272:64:64-i64:64-i128:128-f80:128-n8:16:32:64-S128"
target triple = "x86_64-pc-linux-gnu"

%struct.rb_data_type_struct = type { ptr, %struct.anon, ptr, ptr, i64 }
%struct.anon = type { ptr, ptr, ptr, ptr, [1 x ptr] }

@ePKCS7Error = internal global i64 0, align 8
@rb_eRuntimeError = external global i64, align 8
@ossl_pkcs7_recip_info_type = internal constant %struct.rb_data_type_struct { ptr @.str.80, %struct.anon { ptr null, ptr @ossl_pkcs7_recip_info_free, ptr null, ptr null, [1 x ptr] zeroinitializer }, ptr null, ptr null, i64 33 }, align 8
@.str.77 = private unnamed_addr constant [28 x i8] c"PKCS7ri wasn't initialized.\00", align 1

; Function Attrs: nounwind sspstrong uwtable
define internal i64 @ossl_pkcs7ri_initialize(i64 noundef %0, i64 noundef %1) #0 {
  %3 = alloca i64, align 8
  %4 = alloca i64, align 8
  %5 = alloca ptr, align 8
  %6 = alloca ptr, align 8
  store i64 %0, ptr %3, align 8, !tbaa !11
  store i64 %1, ptr %4, align 8, !tbaa !11
  call void @llvm.lifetime.start.p0(i64 8, ptr %5) #16
  call void @llvm.lifetime.start.p0(i64 8, ptr %6) #16
  %7 = load i64, ptr %4, align 8, !tbaa !11
  %8 = call ptr @GetX509CertPtr(i64 noundef %7)
  store ptr %8, ptr %6, align 8, !tbaa !30
  br label %9

9:                                                ; preds = %2
  %10 = load i64, ptr %3, align 8, !tbaa !11
  %11 = call ptr @rb_check_typeddata(i64 noundef %10, ptr noundef @ossl_pkcs7_recip_info_type)
  store ptr %11, ptr %5, align 8, !tbaa !46
  %12 = load ptr, ptr %5, align 8, !tbaa !46
  %13 = icmp ne ptr %12, null
  br i1 %13, label %16, label %14

14:                                               ; preds = %9
  %15 = load i64, ptr @rb_eRuntimeError, align 8, !tbaa !11
  call void (i64, ptr, ...) @ossl_raise(i64 noundef %15, ptr noundef @.str.77) #17
  unreachable

16:                                               ; preds = %9
  br label %17

17:                                               ; preds = %16
  br label %18

18:                                               ; preds = %17
  %19 = load ptr, ptr %5, align 8, !tbaa !46
  %20 = load ptr, ptr %6, align 8, !tbaa !30
  %21 = call i32 @PKCS7_RECIP_INFO_set(ptr noundef %19, ptr noundef %20)
  %22 = icmp ne i32 %21, 0
  br i1 %22, label %25, label %23

23:                                               ; preds = %18
  %24 = load i64, ptr @ePKCS7Error, align 8, !tbaa !11
  call void (i64, ptr, ...) @ossl_raise(i64 noundef %24, ptr noundef null) #17
  unreachable

25:                                               ; preds = %18
  %26 = load i64, ptr %3, align 8, !tbaa !11
  call void @llvm.lifetime.end.p0(i64 8, ptr %6) #16
  call void @llvm.lifetime.end.p0(i64 8, ptr %5) #16
  ret i64 %26
}